; ModuleID = 'bench/cpython/original/optimizer.ll'
source_filename = "bench/cpython/original/optimizer.ll"
target datalayout = "e-m:e-p270:32:32-p271:32:32-p272:64:64-i64:64-i128:128-f80:128-n8:16:32:64-S128"
target triple = "x86_64-pc-linux-gnu"

@PyExc_NotImplementedError = external local_unnamed_addr global ptr, align 8
@.str = private unnamed_addr constant [17 x i8] c"No JIT available\00", align 1

; Function Attrs: nounwind uwtable
define hidden noundef i32 @_PyDumpExecutors(ptr noundef readnone captures(none) %0) local_unnamed_addr #0 {
  %2 = load ptr, ptr @PyExc_NotImplementedError, align 8, !tbaa !4
  tail call void @PyErr_SetString(ptr noundef %2, ptr noundef nonnull @.str) #2
  ret i32 -1
}

declare void @PyErr_SetString(ptr noundef, ptr noundef) local_unnamed_addr #1


!llvm.module.flags = !{!0, !1, !2, !3}

!0 = !{i32 1, !"wchar_size", i32 4}
!1 = !{i32 8, !"PIC Level", i32 2}
!2 = !{i32 7, !"PIE Level", i32 2}
!3 = !{i32 7, !"uwtable", i32 2}
!4 = !{!5, !5, i64 0}
!5 = !{!"p1 _ZTS7_object", !6, i64 0}
!6 = !{!"any pointer", !7, i64 0}
!7 = !{!"omnipotent char", !8, i64 0}
!8 = !{!"Simple C/C++ TBAA"}
